; Function Attrs: null_pointer_is_valid sspstrong uwtable
define internal i32 @netlogon_dissect_NL_GENERIC_RPC_DATA_UINT32_ARRAY(ptr noundef %0, i32 noundef %1, ptr noundef %2, ptr noundef %3, ptr noundef %4, ptr noundef %5) #0 {
  %7 = getelementptr inbounds nuw i8, ptr %4, i64 25
  %8 = load i8, ptr %7, align 1, !range !6, !noundef !7
  %9 = trunc nuw i8 %8 to i1
  br i1 %9, label %12, label %10

10:                                               ; preds = %6
  %11 = tail call i32 @dissect_ndr_ucarray(ptr noundef %0, i32 noundef %1, ptr noundef %2, ptr noundef %3, ptr noundef %4, ptr noundef %5, ptr noundef nonnull @netlogon_dissect_DOMAIN_TRUST_ATTRIBS)
  br label %12

12:                                               ; preds = %6, %10
  %.0 = phi i32 [ %11, %10 ], [ %1, %6 ]
  ret i32 %.0
}